; Function Attrs: nofree norecurse nosync nounwind memory(argmem: readwrite) uwtable
define internal void @HE16_SSE2(ptr noundef captures(none) %0) #2 {
  br label %2

2:                                                ; preds = %1, %2
  %.07 = phi ptr [ %0, %1 ], [ %7, %2 ]
  %.056 = phi i32 [ 16, %1 ], [ %8, %2 ]
  %3 = getelementptr inbounds i8, ptr %.07, i64 -1
  %4 = load i8, ptr %3, align 1, !tbaa !7
  %5 = insertelement <16 x i8> poison, i8 %4, i64 0
  %6 = shufflevector <16 x i8> %5, <16 x i8> poison, <16 x i32> zeroinitializer
  store <16 x i8> %6, ptr %.07, align 1, !tbaa !7
  %7 = getelementptr inbounds nuw i8, ptr %.07, i64 32
  %8 = add nsw i32 %.056, -1
  %9 = icmp ugt i32 %.056, 1
  br i1 %9, label %2, label %10, !llvm.loop !20

10:                                               ; preds = %2
  ret void
}